target datalayout = "e-m:e-p270:32:32-p271:32:32-p272:64:64-i64:64-i128:128-f80:128-n8:16:32:64-S128"
target triple = "x86_64-pc-linux-gnu"

%struct._Unwind_Exception = type { i64, ptr, i64, i64 }
%struct.GCRef = type { i64 }
%struct.lua_State = type { %struct.GCRef, i8, i8, i8, i8, %struct.MRef, %struct.GCRef, ptr, ptr, %struct.MRef, %struct.MRef, %struct.GCRef, %struct.GCRef, ptr, i32 }
%struct.MRef = type { i64 }
%union.TValue = type { i64 }
%struct.global_State = type { ptr, ptr, %struct.GCState, %struct.GCstr, i8, i8, i8, i8, %struct.StrInternState, i32, %struct.GCRef, %struct.SBuf, %union.TValue, %union.TValue, %struct.Node, %union.TValue, %struct.GCupval, i32, i32, ptr, ptr, ptr, i32, i32, %struct.GCRef, %struct.MRef, %struct.MRef, %struct.PRNGState, [39 x %struct.GCRef] }
%struct.GCState = type { i64, i64, i8, i8, i8, i8, i32, %struct.GCRef, %struct.MRef, %struct.GCRef, %struct.GCRef, %struct.GCRef, %struct.GCRef, i64, i64, i32, i32, %struct.MRef }
%struct.GCstr = type { %struct.GCRef, i8, i8, i8, i8, i32, i32, i32 }
%struct.StrInternState = type { ptr, i32, i32, i32, i8, i8, i8, i8, i64 }
%struct.SBuf = type { ptr, ptr, ptr, %struct.MRef }
%struct.Node = type { %union.TValue, %union.TValue, %struct.MRef }
%struct.GCupval = type { %struct.GCRef, i8, i8, i8, i8, %union.anon, %struct.MRef, i32 }
%union.anon = type { %struct.anon.1 }
%struct.anon.1 = type { %struct.GCRef, %struct.GCRef }
%struct.PRNGState = type { [4 x i64] }
%struct.GG_State = type { %struct.lua_State, %struct.global_State, %struct.jit_State, [64 x i16], [243 x ptr], [57 x i32] }
%struct.jit_State = type { %struct.GCtrace, ptr, ptr, ptr, ptr, ptr, ptr, i32, i32, i32, i8, i8, %struct.IRType1, i8, %struct.FoldState, ptr, i32, i32, i32, i32, i32, i32, i32, [1 x i32], [5 x %union.TValue], [3 x %union.TValue], ptr, i32, i32, i32, i32, ptr, ptr, i32, i32, i8, ptr, i32, i32, i16, [101 x i16], [258 x i32], [15 x i32], [16 x ptr], [64 x %struct.HotPenalty], i32, [16 x %struct.BPropEntry], i32, %struct.ScEvEntry, ptr, i32, i32, i32, ptr, i32, i32, ptr, ptr, ptr, i64, i64, %union.TValue, ptr, i32, i32 }
%struct.GCtrace = type { %struct.GCRef, i8, i8, i16, i32, i32, %struct.GCRef, ptr, i32, i32, ptr, ptr, %struct.GCRef, %struct.MRef, i32, i32, ptr, i32, i16, i16, i16, i16, i16, i16, i16, i8, i8, i8, i8 }
%struct.IRType1 = type { i8 }
%struct.FoldState = type { %union.IRIns, [2 x %union.IRIns], [2 x %union.IRIns] }
%union.IRIns = type { %struct.GCRef }
%struct.HotPenalty = type { %struct.MRef, i16, i16 }
%struct.BPropEntry = type { i16, i16, i32 }
%struct.ScEvEntry = type { %struct.MRef, i16, i16, i16, i16, %struct.IRType1, i8 }

; Function Attrs: nounwind uwtable
define internal i32 @err_unwind_jit(i32 noundef %0, i32 noundef %1, i64 noundef %2, ptr noundef %3, ptr noundef %4) #0 {
  %6 = alloca i32, align 4
  %7 = alloca i32, align 4
  %8 = alloca i32, align 4
  %9 = alloca i64, align 8
  %10 = alloca ptr, align 8
  %11 = alloca ptr, align 8
  %12 = alloca ptr, align 8
  %13 = alloca i32, align 4
  %14 = alloca i64, align 8
  %15 = alloca i64, align 8
  %16 = alloca i32, align 4
  store i32 %0, ptr %7, align 4, !tbaa !4
  store i32 %1, ptr %8, align 4, !tbaa !4
  store i64 %2, ptr %9, align 8, !tbaa !8
  store ptr %3, ptr %10, align 8, !tbaa !10
  store ptr %4, ptr %11, align 8, !tbaa !13
  %17 = load i32, ptr %7, align 4, !tbaa !4
  %18 = icmp ne i32 %17, 1
  br i1 %18, label %23, label %19

19:                                               ; preds = %5
  %20 = load i64, ptr %9, align 8, !tbaa !8
  %21 = xor i64 %20, 5500374307216568832
  %22 = icmp ule i64 %21, 255
  br i1 %22, label %24, label %23

23:                                               ; preds = %19, %5
  store i32 3, ptr %6, align 4
  br label %60

24:                                               ; preds = %19
  %25 = load i32, ptr %8, align 4, !tbaa !4
  %26 = and i32 %25, 1
  %27 = icmp ne i32 %26, 0
  br i1 %27, label %28, label %29

28:                                               ; preds = %24
  store i32 6, ptr %6, align 4
  br label %60

29:                                               ; preds = %24
  %30 = load i32, ptr %8, align 4, !tbaa !4
  %31 = and i32 %30, 2
  %32 = icmp ne i32 %31, 0
  br i1 %32, label %33, label %59

33:                                               ; preds = %29
  call void @llvm.lifetime.start.p0(i64 8, ptr %12) #15
  %34 = load ptr, ptr %10, align 8, !tbaa !10
  %35 = getelementptr inbounds %struct._Unwind_Exception, ptr %34, i64 1
  %36 = load ptr, ptr %35, align 8, !tbaa !42
  store ptr %36, ptr %12, align 8, !tbaa !42
  call void @llvm.lifetime.start.p0(i64 4, ptr %13) #15
  call void @llvm.lifetime.start.p0(i64 8, ptr %14) #15
  %37 = load ptr, ptr %11, align 8, !tbaa !13
  %38 = call i64 @_Unwind_GetIP(ptr noundef %37)
  store i64 %38, ptr %14, align 8, !tbaa !8
  call void @llvm.lifetime.start.p0(i64 8, ptr %15) #15
  %39 = load ptr, ptr %12, align 8, !tbaa !42
  %40 = getelementptr inbounds i8, ptr %39, i64 -96
  %41 = getelementptr inbounds nuw %struct.GG_State, ptr %40, i32 0, i32 2
  %42 = load i64, ptr %14, align 8, !tbaa !8
  %43 = sub i64 %42, 1
  %44 = call i64 @lj_trace_unwind(ptr noundef %41, i64 noundef %43, ptr noundef %13)
  store i64 %44, ptr %15, align 8, !tbaa !8
  %45 = load i64, ptr %15, align 8, !tbaa !8
  %46 = icmp ne i64 %45, 0
  br i1 %46, label %47, label %57

47:                                               ; preds = %33
  %48 = load i64, ptr %9, align 8, !tbaa !8
  %49 = and i64 %48, 255
  %50 = trunc i64 %49 to i32
  %51 = load ptr, ptr %12, align 8, !tbaa !42
  %52 = getelementptr inbounds i8, ptr %51, i64 -96
  %53 = getelementptr inbounds nuw %struct.GG_State, ptr %52, i32 0, i32 2
  %54 = getelementptr inbounds nuw %struct.jit_State, ptr %53, i32 0, i32 52
  store i32 %50, ptr %54, align 8, !tbaa !51
  %55 = load ptr, ptr %11, align 8, !tbaa !13
  %56 = load i64, ptr %15, align 8, !tbaa !8
  call void @_Unwind_SetIP(ptr noundef %55, i64 noundef %56)
  store i32 7, ptr %6, align 4
  store i32 1, ptr %16, align 4
  br label %58

57:                                               ; preds = %33
  store i32 2, ptr %6, align 4
  store i32 1, ptr %16, align 4
  br label %58

58:                                               ; preds = %57, %47
  call void @llvm.lifetime.end.p0(i64 8, ptr %15) #15
  call void @llvm.lifetime.end.p0(i64 8, ptr %14) #15
  call void @llvm.lifetime.end.p0(i64 4, ptr %13) #15
  call void @llvm.lifetime.end.p0(i64 8, ptr %12) #15
  br label %60

59:                                               ; preds = %29
  store i32 3, ptr %6, align 4
  br label %60

60:                                               ; preds = %59, %58, %28, %23
  %61 = load i32, ptr %6, align 4
  ret i32 %61
}