; Function Attrs: nounwind uwtable
define internal range(i32 2, 8) i32 @err_unwind_jit(i32 noundef %0, i32 noundef %1, i64 noundef %2, ptr noundef readonly captures(none) %3, ptr noundef %4) #0 {
  %6 = alloca i32, align 4
  %.not = icmp eq i32 %0, 1
  %7 = xor i64 %2, 5500374307216568832
  %8 = icmp ult i64 %7, 256
  %or.cond = and i1 %.not, %8
  br i1 %or.cond, label %9, label %25

9:                                                ; preds = %5
  %10 = and i32 %1, 1
  %.not14 = icmp eq i32 %10, 0
  br i1 %.not14, label %11, label %25

11:                                               ; preds = %9
  %12 = and i32 %1, 2
  %.not15 = icmp eq i32 %12, 0
  br i1 %.not15, label %25, label %13

13:                                               ; preds = %11
  %14 = getelementptr inbounds nuw i8, ptr %3, i64 32
  %15 = load ptr, ptr %14, align 8, !tbaa !37
  call void @llvm.lifetime.start.p0(i64 4, ptr nonnull %6) #15
  %16 = tail call i64 @_Unwind_GetIP(ptr noundef %4) #15
  %17 = getelementptr inbounds nuw i8, ptr %15, i64 736
  %18 = add i64 %16, -1
  %19 = call i64 @lj_trace_unwind(ptr noundef nonnull %17, i64 noundef %18, ptr noundef nonnull %6) #15
  %.not16 = icmp eq i64 %19, 0
  br i1 %.not16, label %24, label %20

20:                                               ; preds = %13
  %21 = trunc i64 %2 to i32
  %22 = and i32 %21, 255
  %23 = getelementptr inbounds nuw i8, ptr %15, i64 3760
  store i32 %22, ptr %23, align 8, !tbaa !39
  call void @_Unwind_SetIP(ptr noundef %4, i64 noundef %19) #15
  br label %24

24:                                               ; preds = %13, %20
  %.1 = phi i32 [ 7, %20 ], [ 2, %13 ]
  call void @llvm.lifetime.end.p0(i64 4, ptr nonnull %6) #15
  br label %25

25:                                               ; preds = %11, %9, %5, %24
  %.0 = phi i32 [ %.1, %24 ], [ 3, %5 ], [ 6, %9 ], [ 3, %11 ]
  ret i32 %.0
}